; ModuleID = '52/2102.c'
source_filename = "52/2102.c"
target datalayout = "e-m:e-p270:32:32-p271:32:32-p272:64:64-i64:64-f80:128-n8:16:32:64-S128"
target triple = "x86_64-pc-linux-gnu"

@.str = private unnamed_addr constant [5 x i8] c"%d%d\00", align 1
@.str.1 = private unnamed_addr constant [3 x i8] c"%d\00", align 1
@.str.2 = private unnamed_addr constant [4 x i8] c"%d \00", align 1

; Function Attrs: noinline nounwind uwtable
define dso_local i32 @main() #0 {
  %1 = alloca i32, align 4
  %2 = alloca i32*, align 8
  %3 = alloca i32, align 4
  %4 = alloca i32, align 4
  %5 = alloca i32, align 4
  %6 = alloca [200 x i32], align 16
  store i32 0, i32* %1, align 4
  %7 = bitcast [200 x i32]* %6 to i8*
  call void @llvm.memset.p0i8.i64(i8* align 16 %7, i8 0, i64 800, i1 false)
  %8 = call i32 (i8*, ...) @__isoc99_scanf(i8* getelementptr inbounds ([5 x i8], [5 x i8]* @.str, i64 0, i64 0), i32* %4, i32* %3)
  store i32 0, i32* %5, align 4
  br label %9

9:                                                ; preds = %18, %0
  %10 = load i32, i32* %5, align 4
  %11 = load i32, i32* %4, align 4
  %12 = icmp slt i32 %10, %11
  br i1 %12, label %13, label %21

13:                                               ; preds = %9
  %14 = load i32, i32* %5, align 4
  %15 = sext i32 %14 to i64
  %16 = getelementptr inbounds [200 x i32], [200 x i32]* %6, i64 0, i64 %15
  %17 = call i32 (i8*, ...) @__isoc99_scanf(i8* getelementptr inbounds ([3 x i8], [3 x i8]* @.str.1, i64 0, i64 0), i32* %16)
  br label %18

18:                                               ; preds = %13
  %19 = load i32, i32* %5, align 4
  %20 = add nsw i32 %19, 1
  store i32 %20, i32* %5, align 4
  br label %9

21:                                               ; preds = %9
  %22 = getelementptr inbounds [200 x i32], [200 x i32]* %6, i64 0, i64 0
  store i32* %22, i32** %2, align 8
  %23 = getelementptr inbounds [200 x i32], [200 x i32]* %6, i64 0, i64 0
  %24 = load i32, i32* %4, align 4
  %25 = sext i32 %24 to i64
  %26 = getelementptr inbounds i32, i32* %23, i64 %25
  %27 = load i32, i32* %3, align 4
  %28 = sext i32 %27 to i64
  %29 = getelementptr inbounds i32, i32* %26, i64 %28
  %30 = getelementptr inbounds i32, i32* %29, i64 -1
  store i32* %30, i32** %2, align 8
  br label %31

31:                                               ; preds = %43, %21
  %32 = load i32*, i32** %2, align 8
  %33 = getelementptr inbounds [200 x i32], [200 x i32]* %6, i64 0, i64 0
  %34 = icmp uge i32* %32, %33
  br i1 %34, label %35, label %46

35:                                               ; preds = %31
  %36 = load i32*, i32** %2, align 8
  %37 = load i32, i32* %3, align 4
  %38 = sext i32 %37 to i64
  %39 = sub i64 0, %38
  %40 = getelementptr inbounds i32, i32* %36, i64 %39
  %41 = load i32, i32* %40, align 4
  %42 = load i32*, i32** %2, align 8
  store i32 %41, i32* %42, align 4
  br label %43

43:                                               ; preds = %35
  %44 = load i32*, i32** %2, align 8
  %45 = getelementptr inbounds i32, i32* %44, i32 -1
  store i32* %45, i32** %2, align 8
  br label %31

46:                                               ; preds = %31
  %47 = getelementptr inbounds [200 x i32], [200 x i32]* %6, i64 0, i64 0
  store i32* %47, i32** %2, align 8
  br label %48

48:                                               ; preds = %62, %46
  %49 = load i32*, i32** %2, align 8
  %50 = getelementptr inbounds [200 x i32], [200 x i32]* %6, i64 0, i64 0
  %51 = load i32, i32* %3, align 4
  %52 = sext i32 %51 to i64
  %53 = getelementptr inbounds i32, i32* %50, i64 %52
  %54 = icmp ult i32* %49, %53
  br i1 %54, label %55, label %65

55:                                               ; preds = %48
  %56 = load i32*, i32** %2, align 8
  %57 = load i32, i32* %4, align 4
  %58 = sext i32 %57 to i64
  %59 = getelementptr inbounds i32, i32* %56, i64 %58
  %60 = load i32, i32* %59, align 4
  %61 = load i32*, i32** %2, align 8
  store i32 %60, i32* %61, align 4
  br label %62

62:                                               ; preds = %55
  %63 = load i32*, i32** %2, align 8
  %64 = getelementptr inbounds i32, i32* %63, i32 1
  store i32* %64, i32** %2, align 8
  br label %48

65:                                               ; preds = %48
  %66 = getelementptr inbounds [200 x i32], [200 x i32]* %6, i64 0, i64 0
  store i32* %66, i32** %2, align 8
  br label %67

67:                                               ; preds = %79, %65
  %68 = load i32*, i32** %2, align 8
  %69 = getelementptr inbounds [200 x i32], [200 x i32]* %6, i64 0, i64 0
  %70 = load i32, i32* %4, align 4
  %71 = sext i32 %70 to i64
  %72 = getelementptr inbounds i32, i32* %69, i64 %71
  %73 = getelementptr inbounds i32, i32* %72, i64 -1
  %74 = icmp ult i32* %68, %73
  br i1 %74, label %75, label %82

75:                                               ; preds = %67
  %76 = load i32*, i32** %2, align 8
  %77 = load i32, i32* %76, align 4
  %78 = call i32 (i8*, ...) @printf(i8* getelementptr inbounds ([4 x i8], [4 x i8]* @.str.2, i64 0, i64 0), i32 %77)
  br label %79

79:                                               ; preds = %75
  %80 = load i32*, i32** %2, align 8
  %81 = getelementptr inbounds i32, i32* %80, i32 1
  store i32* %81, i32** %2, align 8
  br label %67

82:                                               ; preds = %67
  %83 = load i32*, i32** %2, align 8
  %84 = load i32, i32* %83, align 4
  %85 = call i32 (i8*, ...) @printf(i8* getelementptr inbounds ([3 x i8], [3 x i8]* @.str.1, i64 0, i64 0), i32 %84)
  %86 = load i32, i32* %1, align 4
  ret i32 %86
}

; Function Attrs: argmemonly nounwind willreturn
declare void @llvm.memset.p0i8.i64(i8* nocapture writeonly, i8, i64, i1 immarg) #1

declare dso_local i32 @__isoc99_scanf(i8*, ...) #2

declare dso_local i32 @printf(i8*, ...) #2


!llvm.module.flags = !{!0}
!llvm.ident = !{!1}

!0 = !{i32 1, !"wchar_size", i32 4}
!1 = !{!"clang version 10.0.0-4ubuntu1 "}
